target datalayout = "e-m:e-p270:32:32-p271:32:32-p272:64:64-i64:64-i128:128-f80:128-n8:16:32:64-S128"
target triple = "x86_64-pc-linux-gnu"

%struct.rb_callinfo = type { i64, ptr, i64, i64, i64 }

; Function Attrs: inlinehint nounwind sspstrong uwtable
define internal zeroext i1 @vm_ci_packed_p(ptr noundef %0) #7 {
  %2 = alloca i1, align 1
  %3 = alloca ptr, align 8
  store ptr %0, ptr %3, align 8, !tbaa !118
  %4 = load ptr, ptr %3, align 8, !tbaa !118
  %5 = ptrtoint ptr %4 to i64
  %6 = and i64 %5, 1
  %7 = icmp ne i64 %6, 0
  %8 = xor i1 %7, true
  %9 = xor i1 %8, true
  %10 = zext i1 %9 to i32
  %11 = sext i32 %10 to i64
  %12 = call i64 @llvm.expect.i64(i64 %11, i64 1)
  %13 = icmp ne i64 %12, 0
  br i1 %13, label %14, label %15

14:                                               ; preds = %1
  store i1 true, ptr %2, align 1
  br label %16

15:                                               ; preds = %1
  store i1 false, ptr %2, align 1
  br label %16

16:                                               ; preds = %15, %14
  %17 = load i1, ptr %2, align 1
  ret i1 %17
}

; Function Attrs: inlinehint nounwind sspstrong uwtable
define internal i32 @vm_ci_argc(ptr noundef %0) #7 {
  %2 = alloca i32, align 4
  %3 = alloca ptr, align 8
  store ptr %0, ptr %3, align 8, !tbaa !118
  %4 = load ptr, ptr %3, align 8, !tbaa !118
  %5 = call zeroext i1 @vm_ci_packed_p(ptr noundef %4)
  br i1 %5, label %6, label %12

6:                                                ; preds = %1
  %7 = load ptr, ptr %3, align 8, !tbaa !118
  %8 = ptrtoint ptr %7 to i64
  %9 = lshr i64 %8, 1
  %10 = and i64 %9, 32767
  %11 = trunc i64 %10 to i32
  store i32 %11, ptr %2, align 4
  br label %17

12:                                               ; preds = %1
  %13 = load ptr, ptr %3, align 8, !tbaa !118
  %14 = getelementptr inbounds nuw %struct.rb_callinfo, ptr %13, i32 0, i32 4
  %15 = load i64, ptr %14, align 8, !tbaa !120
  %16 = trunc i64 %15 to i32
  store i32 %16, ptr %2, align 4
  br label %17

17:                                               ; preds = %12, %6
  %18 = load i32, ptr %2, align 4
  ret i32 %18
}

; Function Attrs: inlinehint nounwind sspstrong uwtable
define internal i32 @vm_ci_flag(ptr noundef %0) #7 {
  %2 = alloca i32, align 4
  %3 = alloca ptr, align 8
  store ptr %0, ptr %3, align 8, !tbaa !118
  %4 = load ptr, ptr %3, align 8, !tbaa !118
  %5 = call zeroext i1 @vm_ci_packed_p(ptr noundef %4)
  br i1 %5, label %6, label %12

6:                                                ; preds = %1
  %7 = load ptr, ptr %3, align 8, !tbaa !118
  %8 = ptrtoint ptr %7 to i64
  %9 = lshr i64 %8, 16
  %10 = and i64 %9, 65535
  %11 = trunc i64 %10 to i32
  store i32 %11, ptr %2, align 4
  br label %17

12:                                               ; preds = %1
  %13 = load ptr, ptr %3, align 8, !tbaa !118
  %14 = getelementptr inbounds nuw %struct.rb_callinfo, ptr %13, i32 0, i32 3
  %15 = load i64, ptr %14, align 8, !tbaa !124
  %16 = trunc i64 %15 to i32
  store i32 %16, ptr %2, align 4
  br label %17

17:                                               ; preds = %12, %6
  %18 = load i32, ptr %2, align 4
  ret i32 %18
}

; Function Attrs: nounwind sspstrong uwtable
define internal i64 @sp_inc_of_sendish(ptr noundef %0) #0 {
  %2 = alloca ptr, align 8
  %3 = alloca i32, align 4
  %4 = alloca i32, align 4
  %5 = alloca i32, align 4
  %6 = alloca i32, align 4
  store ptr %0, ptr %2, align 8, !tbaa !118
  call void @llvm.lifetime.start.p0(i64 4, ptr %3) #5
  %7 = load ptr, ptr %2, align 8, !tbaa !118
  %8 = call i32 @vm_ci_flag(ptr noundef %7)
  %9 = and i32 %8, 8194
  %10 = icmp ne i32 %9, 0
  %11 = select i1 %10, i32 1, i32 0
  store i32 %11, ptr %3, align 4, !tbaa !11
  call void @llvm.lifetime.start.p0(i64 4, ptr %4) #5
  %12 = load ptr, ptr %2, align 8, !tbaa !118
  %13 = call i32 @vm_ci_argc(ptr noundef %12)
  store i32 %13, ptr %4, align 4, !tbaa !11
  call void @llvm.lifetime.start.p0(i64 4, ptr %5) #5
  store i32 1, ptr %5, align 4, !tbaa !11
  call void @llvm.lifetime.start.p0(i64 4, ptr %6) #5
  store i32 1, ptr %6, align 4, !tbaa !11
  %14 = load i32, ptr %3, align 4, !tbaa !11
  %15 = sub i32 0, %14
  %16 = load i32, ptr %4, align 4, !tbaa !11
  %17 = sub i32 %15, %16
  %18 = sub i32 %17, 1
  %19 = add i32 %18, 1
  %20 = sext i32 %19 to i64
  call void @llvm.lifetime.end.p0(i64 4, ptr %6) #5
  call void @llvm.lifetime.end.p0(i64 4, ptr %5) #5
  call void @llvm.lifetime.end.p0(i64 4, ptr %4) #5
  call void @llvm.lifetime.end.p0(i64 4, ptr %3) #5
  ret i64 %20
}

; Function Attrs: nounwind sspstrong uwtable
define internal i64 @sp_inc_of_invokeblock(ptr noundef %0) #0 {
  %2 = alloca ptr, align 8
  store ptr %0, ptr %2, align 8, !tbaa !118
  %3 = load ptr, ptr %2, align 8, !tbaa !118
  %4 = call i64 @sp_inc_of_sendish(ptr noundef %3)
  %5 = add i64 %4, 1
  ret i64 %5
}

; Function Attrs: nounwind sspstrong uwtable
define hidden i64 @rb_yjit_invokeblock_sp_pops(ptr noundef %0) #0 {
  %2 = alloca ptr, align 8
  store ptr %0, ptr %2, align 8, !tbaa !118
  %3 = load ptr, ptr %2, align 8, !tbaa !118
  %4 = call i64 @sp_inc_of_invokeblock(ptr noundef %3)
  %5 = sub i64 1, %4
  ret i64 %5
}