; Function Attrs: mustprogress nofree norecurse nosync nounwind sspstrong willreturn memory(argmem: read) uwtable
define hidden range(i64 -2147483647, 2147483649) i64 @rb_yjit_invokeblock_sp_pops(ptr noundef %0) local_unnamed_addr #10 {
  %2 = ptrtoint ptr %0 to i64
  %3 = and i64 %2, 1
  %.not.i.not.i.i.i = icmp eq i64 %3, 0
  br i1 %.not.i.not.i.i.i, label %9, label %4

4:                                                ; preds = %1
  %5 = and i64 %2, 537001984
  %6 = trunc i64 %2 to i32
  %7 = lshr i32 %6, 1
  %8 = and i32 %7, 32767
  br label %sp_inc_of_invokeblock.exit

9:                                                ; preds = %1
  %10 = getelementptr inbounds nuw i8, ptr %0, i64 24
  %11 = load i64, ptr %10, align 8, !tbaa !128
  %12 = and i64 %11, 8194
  %13 = getelementptr inbounds nuw i8, ptr %0, i64 32
  %14 = load i64, ptr %13, align 8, !tbaa !124
  %15 = trunc i64 %14 to i32
  br label %sp_inc_of_invokeblock.exit

sp_inc_of_invokeblock.exit:                       ; preds = %4, %9
  %.neg8.in.in.i.i = phi i64 [ %5, %4 ], [ %12, %9 ]
  %.0.i4.i.i = phi i32 [ %8, %4 ], [ %15, %9 ]
  %.neg8.in.i.i = icmp ne i64 %.neg8.in.in.i.i, 0
  %.neg8.i.i = sext i1 %.neg8.in.i.i to i32
  %16 = sub i32 %.neg8.i.i, %.0.i4.i.i
  %17 = sext i32 %16 to i64
  %18 = sub nsw i64 0, %17
  ret i64 %18
}